; Function Attrs: nounwind uwtable
define dso_local i32 @spawn_resp_send_to_fd(ptr noundef readonly captures(none) %0, i32 noundef %1) local_unnamed_addr #0 {
  %3 = tail call ptr @slurm_init_buf(i32 noundef 1024) #10
  tail call void @spawn_resp_pack(ptr noundef %0, ptr noundef %3)
  %4 = getelementptr inbounds nuw i8, ptr %3, i64 8
  %5 = load ptr, ptr %4, align 8
  %6 = getelementptr inbounds nuw i8, ptr %3, i64 20
  %7 = load i32, ptr %6, align 4
  %8 = zext i32 %7 to i64
  %9 = tail call i64 @slurm_msg_sendto(i32 noundef %1, ptr noundef %5, i64 noundef %8) #10
  tail call void @slurm_free_buf(ptr noundef nonnull %3) #10
  %10 = trunc i64 %9 to i32
  ret i32 %10
}